#include <math.h>
#include <stdio.h>
#include <stdlib.h>
#include <string.h>

int main(int argc, char* argv[])
{
	int n,k,a[1000],i,j,s=0;
	scanf("%d%d",&n,&k);
	for(i=0;i<n-1;i++){
		scanf("%d",&a[i]);
	}
	for(i=0;i<n-1;i++){
		for(j=i+1;j<n;j++){
			if(a[i]+a[j]==k){
				
				
				break;
			}
		}
		if(j!=n){
			printf("yes\n");
			break;
		}
		
		
	}
	if(i==n-1){
		printf("no\n");
	}
	return 0;
}

